target datalayout = "e-m:e-p270:32:32-p271:32:32-p272:64:64-i64:64-i128:128-f80:128-n8:16:32:64-S128"
target triple = "x86_64-pc-linux-gnu"

%struct.darktable_t = type { %struct.dt_codepath_t, i32, i32, ptr, ptr, ptr, ptr, ptr, ptr, ptr, ptr, ptr, ptr, ptr, ptr, ptr, ptr, ptr, ptr, ptr, ptr, ptr, ptr, ptr, ptr, ptr, ptr, ptr, ptr, ptr, [64 x %struct.dt_pthread_mutex_t], %struct.dt_pthread_mutex_t, %struct.dt_pthread_mutex_t, %struct.dt_pthread_mutex_t, %struct.dt_pthread_mutex_t, %struct.dt_pthread_mutex_t, ptr, ptr, ptr, ptr, ptr, ptr, ptr, ptr, ptr, ptr, ptr, ptr, ptr, %struct.dt_lua_state_t, ptr, double, ptr, i32, [47 x i32], i32, i32, ptr, ptr, %struct.dt_sys_resources_t, %struct.dt_backthumb_t, %struct.dt_gimp_t }
%struct.dt_codepath_t = type { i8, [3 x i8] }
%struct.dt_pthread_mutex_t = type { %union.pthread_mutex_t }
%union.pthread_mutex_t = type { %struct.__pthread_mutex_s }
%struct.__pthread_mutex_s = type { i32, i32, i32, i32, i32, i16, i16, %struct.__pthread_internal_list }
%struct.__pthread_internal_list = type { ptr, ptr }
%struct.dt_lua_state_t = type { i32 }
%struct.dt_sys_resources_t = type { i64, i64, ptr, ptr, i32 }
%struct.dt_backthumb_t = type { double, double, i32, i32, i32, i32 }
%struct.dt_gimp_t = type { i32, ptr, ptr, i32, i32 }
%struct.dt_selection_t = type { ptr, i32 }

@darktable = external global %struct.darktable_t, align 8
@.str.3 = private unnamed_addr constant [120 x i8] c"generated/home/dtcxzyw/WorkSpace/Projects/compilers/llvm-opt-benchmark/bench/darktable/darktable/src/common/selection.c\00", align 1
@stderr = external global ptr, align 8
@.str.7 = private unnamed_addr constant [53 x i8] c"sqlite3 error: %s:%d, function %s(), query \22%s\22: %s\0A\00", align 1
@.str.13 = private unnamed_addr constant [41 x i8] c"[sql] %s:%d, function %s(): prepare \22%s\22\00", align 1
@__FUNCTION__.dt_selection_toggle = private unnamed_addr constant [20 x i8] c"dt_selection_toggle\00", align 1
@.str.14 = private unnamed_addr constant [54 x i8] c"SELECT imgid FROM main.selected_images WHERE imgid=?1\00", align 1
@.str.15 = private unnamed_addr constant [41 x i8] c"sqlite3 error: %s:%d, function %s(): %s\0A\00", align 1
@.str.26 = private unnamed_addr constant [40 x i8] c"[signal] raise %s; %s:%d, function %s()\00", align 1
@.str.27 = private unnamed_addr constant [28 x i8] c"DT_SIGNAL_SELECTION_CHANGED\00", align 1
@__FUNCTION__._selection_raise_signal = private unnamed_addr constant [24 x i8] c"_selection_raise_signal\00", align 1

; Function Attrs: nounwind uwtable
define internal void @_selection_raise_signal() #0 {
  call void @dt_act_on_reset_cache(i32 noundef 1)
  call void @dt_act_on_reset_cache(i32 noundef 0)
  br label %1

1:                                                ; preds = %0
  %2 = load i32, ptr getelementptr inbounds nuw (%struct.darktable_t, ptr @darktable, i32 0, i32 53), align 8, !tbaa !55
  %3 = and i32 %2, 1
  %4 = icmp ne i32 %3, 0
  br i1 %4, label %5, label %21

5:                                                ; preds = %1
  %6 = load i32, ptr getelementptr inbounds ([47 x i32], ptr getelementptr inbounds nuw (%struct.darktable_t, ptr @darktable, i32 0, i32 54), i64 0, i64 8), align 4, !tbaa !56
  %7 = icmp ne i32 %6, 0
  br i1 %7, label %8, label %21

8:                                                ; preds = %5
  br label %9

9:                                                ; preds = %8
  %10 = load i32, ptr getelementptr inbounds nuw (%struct.darktable_t, ptr @darktable, i32 0, i32 2), align 8, !tbaa !57
  %11 = and i32 1048576, %10
  %12 = icmp ne i32 %11, 0
  br i1 %12, label %13, label %19

13:                                               ; preds = %9
  %14 = load i32, ptr getelementptr inbounds nuw (%struct.darktable_t, ptr @darktable, i32 0, i32 2), align 8, !tbaa !57
  %15 = xor i32 %14, -1
  %16 = and i32 0, %15
  %17 = icmp ne i32 %16, 0
  br i1 %17, label %19, label %18

18:                                               ; preds = %13
  call void (ptr, ...) @dt_print_ext(ptr noundef @.str.26, ptr noundef @.str.27, ptr noundef @.str.3, i32 noundef 48, ptr noundef @__FUNCTION__._selection_raise_signal)
  br label %19

19:                                               ; preds = %18, %13, %9
  br label %20

20:                                               ; preds = %19
  br label %21

21:                                               ; preds = %20, %5, %1
  %22 = load ptr, ptr getelementptr inbounds nuw (%struct.darktable_t, ptr @darktable, i32 0, i32 13), align 8, !tbaa !58
  call void (ptr, i32, ...) @dt_control_signal_raise(ptr noundef %22, i32 noundef 8)
  br label %23

23:                                               ; preds = %21
  ret void
}

; Function Attrs: nounwind uwtable
define void @dt_selection_toggle(ptr noundef %0, i32 noundef %1) #0 {
  %3 = alloca ptr, align 8
  %4 = alloca i32, align 4
  %5 = alloca ptr, align 8
  %6 = alloca i32, align 4
  %7 = alloca i32, align 4
  %8 = alloca i32, align 4
  %9 = alloca i32, align 4
  store ptr %0, ptr %3, align 8, !tbaa !6
  store i32 %1, ptr %4, align 4, !tbaa !56
  call void @llvm.lifetime.start.p0(i64 8, ptr %5) #5
  call void @llvm.lifetime.start.p0(i64 4, ptr %6) #5
  store i32 0, ptr %6, align 4, !tbaa !56
  %10 = load i32, ptr %4, align 4, !tbaa !56
  %11 = icmp sgt i32 %10, 0
  br i1 %11, label %13, label %12

12:                                               ; preds = %2
  store i32 1, ptr %7, align 4
  br label %74

13:                                               ; preds = %2
  br label %14

14:                                               ; preds = %13
  br label %15

15:                                               ; preds = %14
  %16 = load i32, ptr getelementptr inbounds nuw (%struct.darktable_t, ptr @darktable, i32 0, i32 2), align 8, !tbaa !57
  %17 = and i32 256, %16
  %18 = icmp ne i32 %17, 0
  br i1 %18, label %19, label %25

19:                                               ; preds = %15
  %20 = load i32, ptr getelementptr inbounds nuw (%struct.darktable_t, ptr @darktable, i32 0, i32 2), align 8, !tbaa !57
  %21 = xor i32 %20, -1
  %22 = and i32 0, %21
  %23 = icmp ne i32 %22, 0
  br i1 %23, label %25, label %24

24:                                               ; preds = %19
  call void (ptr, ...) @dt_print_ext(ptr noundef @.str.13, ptr noundef @.str.3, i32 noundef 269, ptr noundef @__FUNCTION__.dt_selection_toggle, ptr noundef @.str.14)
  br label %25

25:                                               ; preds = %24, %19, %15
  br label %26

26:                                               ; preds = %25
  br label %27

27:                                               ; preds = %26
  call void @llvm.lifetime.start.p0(i64 4, ptr %8) #5
  %28 = load ptr, ptr getelementptr inbounds nuw (%struct.darktable_t, ptr @darktable, i32 0, i32 18), align 8, !tbaa !61
  %29 = call ptr @dt_database_get(ptr noundef %28)
  %30 = call i32 @sqlite3_prepare_v2(ptr noundef %29, ptr noundef @.str.14, i32 noundef -1, ptr noundef %5, ptr noundef null)
  store i32 %30, ptr %8, align 4, !tbaa !56
  %31 = load i32, ptr %8, align 4, !tbaa !56
  %32 = icmp ne i32 %31, 0
  br i1 %32, label %33, label %39

33:                                               ; preds = %27
  %34 = load ptr, ptr @stderr, align 8, !tbaa !62
  %35 = load ptr, ptr getelementptr inbounds nuw (%struct.darktable_t, ptr @darktable, i32 0, i32 18), align 8, !tbaa !61
  %36 = call ptr @dt_database_get(ptr noundef %35)
  %37 = call ptr @sqlite3_errmsg(ptr noundef %36)
  %38 = call i32 (ptr, ptr, ...) @fprintf(ptr noundef %34, ptr noundef @.str.7, ptr noundef @.str.3, i32 noundef 269, ptr noundef @__FUNCTION__.dt_selection_toggle, ptr noundef @.str.14, ptr noundef %37) #5
  br label %39

39:                                               ; preds = %33, %27
  call void @llvm.lifetime.end.p0(i64 4, ptr %8) #5
  br label %40

40:                                               ; preds = %39
  br label %41

41:                                               ; preds = %40
  call void @llvm.lifetime.start.p0(i64 4, ptr %9) #5
  %42 = load ptr, ptr %5, align 8, !tbaa !86
  %43 = load i32, ptr %4, align 4, !tbaa !56
  %44 = call i32 @sqlite3_bind_int(ptr noundef %42, i32 noundef 1, i32 noundef %43)
  store i32 %44, ptr %9, align 4, !tbaa !56
  %45 = load i32, ptr %9, align 4, !tbaa !56
  %46 = icmp ne i32 %45, 0
  br i1 %46, label %47, label %53

47:                                               ; preds = %41
  %48 = load ptr, ptr @stderr, align 8, !tbaa !62
  %49 = load ptr, ptr getelementptr inbounds nuw (%struct.darktable_t, ptr @darktable, i32 0, i32 18), align 8, !tbaa !61
  %50 = call ptr @dt_database_get(ptr noundef %49)
  %51 = call ptr @sqlite3_errmsg(ptr noundef %50)
  %52 = call i32 (ptr, ptr, ...) @fprintf(ptr noundef %48, ptr noundef @.str.15, ptr noundef @.str.3, i32 noundef 270, ptr noundef @__FUNCTION__.dt_selection_toggle, ptr noundef %51) #5
  br label %53

53:                                               ; preds = %47, %41
  call void @llvm.lifetime.end.p0(i64 4, ptr %9) #5
  %54 = load ptr, ptr %5, align 8, !tbaa !86
  %55 = call i32 @sqlite3_step(ptr noundef %54)
  %56 = icmp eq i32 %55, 100
  br i1 %56, label %57, label %58

57:                                               ; preds = %53
  store i32 1, ptr %6, align 4, !tbaa !56
  br label %58

58:                                               ; preds = %57, %53
  %59 = load ptr, ptr %5, align 8, !tbaa !86
  %60 = call i32 @sqlite3_finalize(ptr noundef %59)
  %61 = load i32, ptr %6, align 4, !tbaa !56
  %62 = icmp ne i32 %61, 0
  br i1 %62, label %63, label %66

63:                                               ; preds = %58
  %64 = load ptr, ptr %3, align 8, !tbaa !6
  %65 = load i32, ptr %4, align 4, !tbaa !56
  call void @dt_selection_deselect(ptr noundef %64, i32 noundef %65)
  br label %72

66:                                               ; preds = %58
  %67 = load ptr, ptr %3, align 8, !tbaa !6
  %68 = load i32, ptr %4, align 4, !tbaa !56
  call void @dt_selection_select(ptr noundef %67, i32 noundef %68)
  %69 = load i32, ptr %4, align 4, !tbaa !56
  %70 = load ptr, ptr %3, align 8, !tbaa !6
  %71 = getelementptr inbounds nuw %struct.dt_selection_t, ptr %70, i32 0, i32 1
  store i32 %69, ptr %71, align 8, !tbaa !15
  br label %72

72:                                               ; preds = %66, %63
  call void @_selection_raise_signal()
  %73 = load ptr, ptr getelementptr inbounds nuw (%struct.darktable_t, ptr @darktable, i32 0, i32 21), align 8, !tbaa !16
  call void @dt_collection_hint_message(ptr noundef %73)
  store i32 0, ptr %7, align 4
  br label %74

74:                                               ; preds = %72, %12
  call void @llvm.lifetime.end.p0(i64 4, ptr %6) #5
  call void @llvm.lifetime.end.p0(i64 8, ptr %5) #5
  %75 = load i32, ptr %7, align 4
  switch i32 %75, label %77 [
    i32 0, label %76
    i32 1, label %76
  ]

76:                                               ; preds = %74, %74
  ret void

77:                                               ; preds = %74
  unreachable
}