; Function Attrs: nounwind uwtable
define void @dt_selection_toggle(ptr noundef captures(none) %0, i32 noundef %1) local_unnamed_addr #1 {
  %3 = alloca ptr, align 8
  call void @llvm.lifetime.start.p0(i64 8, ptr nonnull %3) #8
  %4 = icmp sgt i32 %1, 0
  br i1 %4, label %5, label %48

5:                                                ; preds = %2
  %6 = load i32, ptr getelementptr inbounds nuw (i8, ptr @darktable, i64 8), align 8, !tbaa !54
  %7 = and i32 %6, 256
  %.not = icmp eq i32 %7, 0
  br i1 %.not, label %9, label %8

8:                                                ; preds = %5
  tail call void (ptr, ...) @dt_print_ext(ptr noundef nonnull @.str.13, ptr noundef nonnull @.str.3, i32 noundef 269, ptr noundef nonnull @__FUNCTION__.dt_selection_toggle, ptr noundef nonnull @.str.14) #8
  br label %9

9:                                                ; preds = %8, %5
  %10 = load ptr, ptr getelementptr inbounds nuw (i8, ptr @darktable, i64 136), align 8, !tbaa !56
  %11 = tail call ptr @dt_database_get(ptr noundef %10) #8
  %12 = call i32 @sqlite3_prepare_v2(ptr noundef %11, ptr noundef nonnull @.str.14, i32 noundef -1, ptr noundef nonnull %3, ptr noundef null) #8
  %.not11 = icmp eq i32 %12, 0
  br i1 %.not11, label %19, label %13

13:                                               ; preds = %9
  %14 = load ptr, ptr @stderr, align 8, !tbaa !57
  %15 = load ptr, ptr getelementptr inbounds nuw (i8, ptr @darktable, i64 136), align 8, !tbaa !56
  %16 = call ptr @dt_database_get(ptr noundef %15) #8
  %17 = call ptr @sqlite3_errmsg(ptr noundef %16) #8
  %18 = call i32 (ptr, ptr, ...) @fprintf(ptr noundef %14, ptr noundef nonnull @.str.7, ptr noundef nonnull @.str.3, i32 noundef 269, ptr noundef nonnull @__FUNCTION__.dt_selection_toggle, ptr noundef nonnull @.str.14, ptr noundef %17) #9
  br label %19

19:                                               ; preds = %13, %9
  %20 = load ptr, ptr %3, align 8, !tbaa !79
  %21 = call i32 @sqlite3_bind_int(ptr noundef %20, i32 noundef 1, i32 noundef %1) #8
  %.not12 = icmp eq i32 %21, 0
  br i1 %.not12, label %28, label %22

22:                                               ; preds = %19
  %23 = load ptr, ptr @stderr, align 8, !tbaa !57
  %24 = load ptr, ptr getelementptr inbounds nuw (i8, ptr @darktable, i64 136), align 8, !tbaa !56
  %25 = call ptr @dt_database_get(ptr noundef %24) #8
  %26 = call ptr @sqlite3_errmsg(ptr noundef %25) #8
  %27 = call i32 (ptr, ptr, ...) @fprintf(ptr noundef %23, ptr noundef nonnull @.str.15, ptr noundef nonnull @.str.3, i32 noundef 270, ptr noundef nonnull @__FUNCTION__.dt_selection_toggle, ptr noundef %26) #9
  br label %28

28:                                               ; preds = %22, %19
  %29 = load ptr, ptr %3, align 8, !tbaa !79
  %30 = call i32 @sqlite3_step(ptr noundef %29) #8
  %.not14 = icmp eq i32 %30, 100
  %31 = load ptr, ptr %3, align 8, !tbaa !79
  %32 = call i32 @sqlite3_finalize(ptr noundef %31) #8
  br i1 %.not14, label %33, label %34

33:                                               ; preds = %28
  call void @dt_selection_deselect(ptr noundef %0, i32 noundef %1)
  br label %36

34:                                               ; preds = %28
  call void @dt_selection_select(ptr noundef %0, i32 noundef %1)
  %35 = getelementptr inbounds nuw i8, ptr %0, i64 8
  store i32 %1, ptr %35, align 8, !tbaa !50
  br label %36

36:                                               ; preds = %34, %33
  call void @dt_act_on_reset_cache(i32 noundef 1) #8
  call void @dt_act_on_reset_cache(i32 noundef 0) #8
  %37 = load i32, ptr getelementptr inbounds nuw (i8, ptr @darktable, i64 3128), align 8, !tbaa !53
  %38 = and i32 %37, 1
  %39 = icmp ne i32 %38, 0
  %40 = load i32, ptr getelementptr inbounds nuw (i8, ptr @darktable, i64 3164), align 4
  %41 = icmp ne i32 %40, 0
  %or.cond.i = select i1 %39, i1 %41, i1 false
  br i1 %or.cond.i, label %42, label %_selection_raise_signal.exit

42:                                               ; preds = %36
  %43 = load i32, ptr getelementptr inbounds nuw (i8, ptr @darktable, i64 8), align 8, !tbaa !54
  %44 = and i32 %43, 1048576
  %.not.i = icmp eq i32 %44, 0
  br i1 %.not.i, label %_selection_raise_signal.exit, label %45

45:                                               ; preds = %42
  call void (ptr, ...) @dt_print_ext(ptr noundef nonnull @.str.26, ptr noundef nonnull @.str.27, ptr noundef nonnull @.str.3, i32 noundef 48, ptr noundef nonnull @__FUNCTION__._selection_raise_signal) #8
  br label %_selection_raise_signal.exit

_selection_raise_signal.exit:                     ; preds = %36, %42, %45
  %46 = load ptr, ptr getelementptr inbounds nuw (i8, ptr @darktable, i64 96), align 8, !tbaa !55
  call void (ptr, i32, ...) @dt_control_signal_raise(ptr noundef %46, i32 noundef 8) #8
  %47 = load ptr, ptr getelementptr inbounds nuw (i8, ptr @darktable, i64 160), align 8, !tbaa !13
  call void @dt_collection_hint_message(ptr noundef %47) #8
  br label %48

48:                                               ; preds = %2, %_selection_raise_signal.exit
  call void @llvm.lifetime.end.p0(i64 8, ptr nonnull %3) #8
  ret void
}